target datalayout = "e-m:e-p270:32:32-p271:32:32-p272:64:64-i64:64-i128:128-f80:128-n8:16:32:64-S128"
target triple = "x86_64-pc-linux-gnu"

%struct.sdshdr8 = type { i8, i8, i8, [0 x i8] }
%struct.sdshdr16 = type <{ i16, i16, i8, [0 x i8] }>
%struct.sdshdr32 = type <{ i32, i32, i8, [0 x i8] }>
%struct.sdshdr64 = type <{ i64, i64, i8, [0 x i8] }>
%struct.redisNodeFlags = type { i16, ptr }

@.str.154 = private unnamed_addr constant [9 x i8] c"noflags,\00", align 1

; Function Attrs: inlinehint nounwind uwtable
define internal i64 @sdslen(ptr noundef %0) #5 {
  %2 = alloca i64, align 8
  %3 = alloca ptr, align 8
  %4 = alloca i8, align 1
  %5 = alloca i32, align 4
  store ptr %0, ptr %3, align 8, !tbaa !52
  call void @llvm.lifetime.start.p0(i64 1, ptr %4) #16
  %6 = load ptr, ptr %3, align 8, !tbaa !52
  %7 = getelementptr inbounds i8, ptr %6, i64 -1
  %8 = load i8, ptr %7, align 1, !tbaa !54
  store i8 %8, ptr %4, align 1, !tbaa !54
  %9 = load i8, ptr %4, align 1, !tbaa !54
  %10 = zext i8 %9 to i32
  %11 = and i32 %10, 7
  switch i32 %11, label %40 [
    i32 0, label %12
    i32 1, label %17
    i32 2, label %23
    i32 3, label %29
    i32 4, label %35
  ]

12:                                               ; preds = %1
  %13 = load i8, ptr %4, align 1, !tbaa !54
  %14 = zext i8 %13 to i32
  %15 = ashr i32 %14, 3
  %16 = sext i32 %15 to i64
  store i64 %16, ptr %2, align 8
  store i32 1, ptr %5, align 4
  br label %41

17:                                               ; preds = %1
  %18 = load ptr, ptr %3, align 8, !tbaa !52
  %19 = getelementptr inbounds i8, ptr %18, i64 -3
  %20 = getelementptr inbounds nuw %struct.sdshdr8, ptr %19, i32 0, i32 0
  %21 = load i8, ptr %20, align 1, !tbaa !54
  %22 = zext i8 %21 to i64
  store i64 %22, ptr %2, align 8
  store i32 1, ptr %5, align 4
  br label %41

23:                                               ; preds = %1
  %24 = load ptr, ptr %3, align 8, !tbaa !52
  %25 = getelementptr inbounds i8, ptr %24, i64 -5
  %26 = getelementptr inbounds nuw %struct.sdshdr16, ptr %25, i32 0, i32 0
  %27 = load i16, ptr %26, align 1, !tbaa !63
  %28 = zext i16 %27 to i64
  store i64 %28, ptr %2, align 8
  store i32 1, ptr %5, align 4
  br label %41

29:                                               ; preds = %1
  %30 = load ptr, ptr %3, align 8, !tbaa !52
  %31 = getelementptr inbounds i8, ptr %30, i64 -9
  %32 = getelementptr inbounds nuw %struct.sdshdr32, ptr %31, i32 0, i32 0
  %33 = load i32, ptr %32, align 1, !tbaa !46
  %34 = zext i32 %33 to i64
  store i64 %34, ptr %2, align 8
  store i32 1, ptr %5, align 4
  br label %41

35:                                               ; preds = %1
  %36 = load ptr, ptr %3, align 8, !tbaa !52
  %37 = getelementptr inbounds i8, ptr %36, i64 -17
  %38 = getelementptr inbounds nuw %struct.sdshdr64, ptr %37, i32 0, i32 0
  %39 = load i64, ptr %38, align 1, !tbaa !65
  store i64 %39, ptr %2, align 8
  store i32 1, ptr %5, align 4
  br label %41

40:                                               ; preds = %1
  store i64 0, ptr %2, align 8
  store i32 1, ptr %5, align 4
  br label %41

41:                                               ; preds = %40, %35, %29, %23, %17, %12
  call void @llvm.lifetime.end.p0(i64 1, ptr %4) #16
  %42 = load i64, ptr %2, align 8
  ret i64 %42
}

; Function Attrs: nounwind uwtable
define dso_local ptr @representClusterNodeFlags(ptr noundef %0, i16 noundef zeroext %1) #0 {
  %3 = alloca ptr, align 8
  %4 = alloca i16, align 2
  %5 = alloca i64, align 8
  %6 = alloca i32, align 4
  %7 = alloca i32, align 4
  %8 = alloca ptr, align 8
  store ptr %0, ptr %3, align 8, !tbaa !52
  store i16 %1, ptr %4, align 2, !tbaa !63
  call void @llvm.lifetime.start.p0(i64 8, ptr %5) #16
  %9 = load ptr, ptr %3, align 8, !tbaa !52
  %10 = call i64 @sdslen(ptr noundef %9)
  store i64 %10, ptr %5, align 8, !tbaa !65
  call void @llvm.lifetime.start.p0(i64 4, ptr %6) #16
  call void @llvm.lifetime.start.p0(i64 4, ptr %7) #16
  store i32 8, ptr %7, align 4, !tbaa !46
  store i32 0, ptr %6, align 4, !tbaa !46
  br label %11

11:                                               ; preds = %34, %2
  %12 = load i32, ptr %6, align 4, !tbaa !46
  %13 = load i32, ptr %7, align 4, !tbaa !46
  %14 = icmp slt i32 %12, %13
  br i1 %14, label %15, label %37

15:                                               ; preds = %11
  call void @llvm.lifetime.start.p0(i64 8, ptr %8) #16
  %16 = load i32, ptr %6, align 4, !tbaa !46
  %17 = sext i32 %16 to i64
  %18 = getelementptr inbounds %struct.redisNodeFlags, ptr @redisNodeFlagsTable, i64 %17
  store ptr %18, ptr %8, align 8, !tbaa !232
  %19 = load i16, ptr %4, align 2, !tbaa !63
  %20 = zext i16 %19 to i32
  %21 = load ptr, ptr %8, align 8, !tbaa !232
  %22 = getelementptr inbounds nuw %struct.redisNodeFlags, ptr %21, i32 0, i32 0
  %23 = load i16, ptr %22, align 8, !tbaa !234
  %24 = zext i16 %23 to i32
  %25 = and i32 %20, %24
  %26 = icmp ne i32 %25, 0
  br i1 %26, label %27, label %33

27:                                               ; preds = %15
  %28 = load ptr, ptr %3, align 8, !tbaa !52
  %29 = load ptr, ptr %8, align 8, !tbaa !232
  %30 = getelementptr inbounds nuw %struct.redisNodeFlags, ptr %29, i32 0, i32 1
  %31 = load ptr, ptr %30, align 8, !tbaa !236
  %32 = call ptr @sdscat(ptr noundef %28, ptr noundef %31)
  store ptr %32, ptr %3, align 8, !tbaa !52
  br label %33

33:                                               ; preds = %27, %15
  call void @llvm.lifetime.end.p0(i64 8, ptr %8) #16
  br label %34

34:                                               ; preds = %33
  %35 = load i32, ptr %6, align 4, !tbaa !46
  %36 = add nsw i32 %35, 1
  store i32 %36, ptr %6, align 4, !tbaa !46
  br label %11, !llvm.loop !237

37:                                               ; preds = %11
  %38 = load ptr, ptr %3, align 8, !tbaa !52
  %39 = call i64 @sdslen(ptr noundef %38)
  %40 = load i64, ptr %5, align 8, !tbaa !65
  %41 = icmp eq i64 %39, %40
  br i1 %41, label %42, label %45

42:                                               ; preds = %37
  %43 = load ptr, ptr %3, align 8, !tbaa !52
  %44 = call ptr @sdscat(ptr noundef %43, ptr noundef @.str.154)
  store ptr %44, ptr %3, align 8, !tbaa !52
  br label %45

45:                                               ; preds = %42, %37
  %46 = load ptr, ptr %3, align 8, !tbaa !52
  call void @sdsIncrLen(ptr noundef %46, i64 noundef -1)
  %47 = load ptr, ptr %3, align 8, !tbaa !52
  call void @llvm.lifetime.end.p0(i64 4, ptr %7) #16
  call void @llvm.lifetime.end.p0(i64 4, ptr %6) #16
  call void @llvm.lifetime.end.p0(i64 8, ptr %5) #16
  ret ptr %47
}