; Function Attrs: nounwind uwtable
define dso_local noundef ptr @representClusterNodeFlags(ptr noundef %0, i16 noundef zeroext %1) local_unnamed_addr #3 {
  %3 = getelementptr inbounds i8, ptr %0, i64 -1
  %4 = load i8, ptr %3, align 1, !tbaa !50
  %5 = zext i8 %4 to i32
  %6 = and i32 %5, 7
  switch i32 %6, label %sdslen.exit [
    i32 0, label %7
    i32 1, label %10
    i32 2, label %14
    i32 3, label %18
    i32 4, label %22
  ]

7:                                                ; preds = %2
  %8 = lshr i32 %5, 3
  %9 = zext nneg i32 %8 to i64
  br label %sdslen.exit

10:                                               ; preds = %2
  %11 = getelementptr inbounds i8, ptr %0, i64 -3
  %12 = load i8, ptr %11, align 1, !tbaa !50
  %13 = zext i8 %12 to i64
  br label %sdslen.exit

14:                                               ; preds = %2
  %15 = getelementptr inbounds i8, ptr %0, i64 -5
  %16 = load i16, ptr %15, align 1, !tbaa !51
  %17 = zext i16 %16 to i64
  br label %sdslen.exit

18:                                               ; preds = %2
  %19 = getelementptr inbounds i8, ptr %0, i64 -9
  %20 = load i32, ptr %19, align 1, !tbaa !38
  %21 = zext i32 %20 to i64
  br label %sdslen.exit

22:                                               ; preds = %2
  %23 = getelementptr inbounds i8, ptr %0, i64 -17
  %24 = load i64, ptr %23, align 1, !tbaa !53
  br label %sdslen.exit

sdslen.exit:                                      ; preds = %2, %7, %10, %14, %18, %22
  %.0.i = phi i64 [ %24, %22 ], [ %21, %18 ], [ %17, %14 ], [ %13, %10 ], [ %9, %7 ], [ 0, %2 ]
  br label %25

25:                                               ; preds = %sdslen.exit, %33
  %indvars.iv = phi i64 [ 0, %sdslen.exit ], [ %indvars.iv.next, %33 ]
  %.017 = phi ptr [ %0, %sdslen.exit ], [ %.1, %33 ]
  %26 = getelementptr inbounds nuw %struct.redisNodeFlags, ptr @redisNodeFlagsTable, i64 %indvars.iv
  %27 = load i16, ptr %26, align 16, !tbaa !202
  %28 = and i16 %27, %1
  %.not = icmp eq i16 %28, 0
  br i1 %.not, label %33, label %29

29:                                               ; preds = %25
  %30 = getelementptr inbounds nuw i8, ptr %26, i64 8
  %31 = load ptr, ptr %30, align 8, !tbaa !204
  %32 = tail call ptr @sdscat(ptr noundef %.017, ptr noundef %31) #33
  br label %33

33:                                               ; preds = %29, %25
  %.1 = phi ptr [ %32, %29 ], [ %.017, %25 ]
  %indvars.iv.next = add nuw nsw i64 %indvars.iv, 1
  %exitcond.not = icmp eq i64 %indvars.iv.next, 8
  br i1 %exitcond.not, label %34, label %25, !llvm.loop !205

34:                                               ; preds = %33
  %35 = getelementptr inbounds i8, ptr %.1, i64 -1
  %36 = load i8, ptr %35, align 1, !tbaa !50
  %37 = zext i8 %36 to i32
  %38 = and i32 %37, 7
  switch i32 %38, label %sdslen.exit15 [
    i32 0, label %39
    i32 1, label %42
    i32 2, label %46
    i32 3, label %50
    i32 4, label %54
  ]

39:                                               ; preds = %34
  %40 = lshr i32 %37, 3
  %41 = zext nneg i32 %40 to i64
  br label %sdslen.exit15

42:                                               ; preds = %34
  %43 = getelementptr inbounds i8, ptr %.1, i64 -3
  %44 = load i8, ptr %43, align 1, !tbaa !50
  %45 = zext i8 %44 to i64
  br label %sdslen.exit15

46:                                               ; preds = %34
  %47 = getelementptr inbounds i8, ptr %.1, i64 -5
  %48 = load i16, ptr %47, align 1, !tbaa !51
  %49 = zext i16 %48 to i64
  br label %sdslen.exit15

50:                                               ; preds = %34
  %51 = getelementptr inbounds i8, ptr %.1, i64 -9
  %52 = load i32, ptr %51, align 1, !tbaa !38
  %53 = zext i32 %52 to i64
  br label %sdslen.exit15

54:                                               ; preds = %34
  %55 = getelementptr inbounds i8, ptr %.1, i64 -17
  %56 = load i64, ptr %55, align 1, !tbaa !53
  br label %sdslen.exit15

sdslen.exit15:                                    ; preds = %34, %39, %42, %46, %50, %54
  %.0.i14 = phi i64 [ %56, %54 ], [ %53, %50 ], [ %49, %46 ], [ %45, %42 ], [ %41, %39 ], [ 0, %34 ]
  %57 = icmp eq i64 %.0.i14, %.0.i
  br i1 %57, label %58, label %60

58:                                               ; preds = %sdslen.exit15
  %59 = tail call ptr @sdscat(ptr noundef nonnull %.1, ptr noundef nonnull @.str.154) #33
  br label %60

60:                                               ; preds = %58, %sdslen.exit15
  %.2 = phi ptr [ %59, %58 ], [ %.1, %sdslen.exit15 ]
  tail call void @sdsIncrLen(ptr noundef %.2, i64 noundef -1) #33
  ret ptr %.2
}